; Function Attrs: nounwind uwtable
define hidden i32 @mbedtls_rsa_rsassa_pss_verify(ptr noundef %0, i32 noundef %1, i32 noundef %2, ptr noundef %3, ptr noundef %4) local_unnamed_addr #0 {
  %6 = or i32 %2, %1
  %or.cond = icmp ne i32 %6, 0
  %7 = icmp eq ptr %3, null
  %or.cond3 = and i1 %or.cond, %7
  br i1 %or.cond3, label %12, label %8

8:                                                ; preds = %5
  %9 = getelementptr inbounds nuw i8, ptr %0, i64 228
  %10 = load i32, ptr %9, align 4, !tbaa !18
  %.not = icmp eq i32 %10, 0
  %. = select i1 %.not, i32 %1, i32 %10
  %11 = tail call i32 @mbedtls_rsa_rsassa_pss_verify_ext(ptr noundef %0, i32 noundef %1, i32 noundef %2, ptr noundef %3, i32 noundef %., i32 noundef -1, ptr noundef %4)
  br label %12

12:                                               ; preds = %5, %8
  %.0 = phi i32 [ %11, %8 ], [ -16512, %5 ]
  ret i32 %.0
}